target datalayout = "e-m:e-p270:32:32-p271:32:32-p272:64:64-i64:64-i128:128-f80:128-n8:16:32:64-S128"
target triple = "x86_64-pc-linux-gnu"

%class.ErrorHandler = type <{ i32, i32, i8, i8, i8, i8, i8, i8, [2 x i8] }>
%class.RangeCoder = type { i32, i32, i32, %"struct.RangeCoder::SUBRANGE", ptr }
%"struct.RangeCoder::SUBRANGE" = type { i32, i32, i32 }
%class.SubAllocator = type { i64, [38 x i8], [128 x i8], i8, ptr, ptr, ptr, [38 x %"struct.SubAllocator::RAR_NODE"], ptr, ptr, ptr, ptr }
%"struct.SubAllocator::RAR_NODE" = type { ptr }
%class.ModelPPM = type <{ i8, [25 x [16 x %struct.RARPPM_SEE2_CONTEXT]], %struct.RARPPM_SEE2_CONTEXT, [3 x i8], ptr, ptr, ptr, ptr, i32, i32, i32, i32, i32, i32, [256 x i8], [256 x i8], [256 x i8], [256 x i8], i8, i8, i8, i8, [128 x [64 x i16]], [4 x i8], %class.RangeCoder, %class.SubAllocator }>
%struct.RARPPM_SEE2_CONTEXT = type { i16, i8, i8 }

@ErrHandler = external global %class.ErrorHandler, align 4

; Function Attrs: mustprogress uwtable
define void @_ZN8ModelPPM14StartModelRareEi(ptr noundef nonnull align 8 dereferenceable(19648) %0, i32 noundef %1) #0 align 2 {
  %3 = alloca ptr, align 8
  %4 = alloca i32, align 4
  %5 = alloca i32, align 4
  %6 = alloca i32, align 4
  %7 = alloca i32, align 4
  %8 = alloca i32, align 4
  store ptr %0, ptr %3, align 8
  store i32 %1, ptr %4, align 4
  %9 = load ptr, ptr %3, align 8
  %10 = getelementptr inbounds %class.ModelPPM, ptr %9, i32 0, i32 18
  store i8 1, ptr %10, align 8
  %11 = load i32, ptr %4, align 4
  %12 = getelementptr inbounds %class.ModelPPM, ptr %9, i32 0, i32 11
  store i32 %11, ptr %12, align 4
  call void @_ZN8ModelPPM16RestartModelRareEv(ptr noundef nonnull align 8 dereferenceable(19648) %9)
  %13 = getelementptr inbounds %class.ModelPPM, ptr %9, i32 0, i32 16
  %14 = getelementptr inbounds [256 x i8], ptr %13, i64 0, i64 0
  store i8 0, ptr %14, align 8
  %15 = getelementptr inbounds %class.ModelPPM, ptr %9, i32 0, i32 16
  %16 = getelementptr inbounds [256 x i8], ptr %15, i64 0, i64 1
  store i8 2, ptr %16, align 1
  %17 = getelementptr inbounds %class.ModelPPM, ptr %9, i32 0, i32 16
  %18 = getelementptr inbounds [256 x i8], ptr %17, i64 0, i64 0
  %19 = getelementptr inbounds i8, ptr %18, i64 2
  call void @llvm.memset.p0.i64(ptr align 1 %19, i8 4, i64 9, i1 false)
  %20 = getelementptr inbounds %class.ModelPPM, ptr %9, i32 0, i32 16
  %21 = getelementptr inbounds [256 x i8], ptr %20, i64 0, i64 0
  %22 = getelementptr inbounds i8, ptr %21, i64 11
  call void @llvm.memset.p0.i64(ptr align 1 %22, i8 6, i64 245, i1 false)
  store i32 0, ptr %5, align 4
  br label %23

23:                                               ; preds = %33, %2
  %24 = load i32, ptr %5, align 4
  %25 = icmp slt i32 %24, 3
  br i1 %25, label %26, label %36

26:                                               ; preds = %23
  %27 = load i32, ptr %5, align 4
  %28 = trunc i32 %27 to i8
  %29 = getelementptr inbounds %class.ModelPPM, ptr %9, i32 0, i32 15
  %30 = load i32, ptr %5, align 4
  %31 = sext i32 %30 to i64
  %32 = getelementptr inbounds [256 x i8], ptr %29, i64 0, i64 %31
  store i8 %28, ptr %32, align 1
  br label %33

33:                                               ; preds = %26
  %34 = load i32, ptr %5, align 4
  %35 = add nsw i32 %34, 1
  store i32 %35, ptr %5, align 4
  br label %23, !llvm.loop !24

36:                                               ; preds = %23
  %37 = load i32, ptr %5, align 4
  store i32 %37, ptr %7, align 4
  store i32 1, ptr %8, align 4
  store i32 1, ptr %6, align 4
  br label %38

38:                                               ; preds = %57, %36
  %39 = load i32, ptr %5, align 4
  %40 = icmp slt i32 %39, 256
  br i1 %40, label %41, label %60

41:                                               ; preds = %38
  %42 = load i32, ptr %7, align 4
  %43 = trunc i32 %42 to i8
  %44 = getelementptr inbounds %class.ModelPPM, ptr %9, i32 0, i32 15
  %45 = load i32, ptr %5, align 4
  %46 = sext i32 %45 to i64
  %47 = getelementptr inbounds [256 x i8], ptr %44, i64 0, i64 %46
  store i8 %43, ptr %47, align 1
  %48 = load i32, ptr %6, align 4
  %49 = add nsw i32 %48, -1
  store i32 %49, ptr %6, align 4
  %50 = icmp ne i32 %49, 0
  br i1 %50, label %56, label %51

51:                                               ; preds = %41
  %52 = load i32, ptr %8, align 4
  %53 = add nsw i32 %52, 1
  store i32 %53, ptr %8, align 4
  store i32 %53, ptr %6, align 4
  %54 = load i32, ptr %7, align 4
  %55 = add nsw i32 %54, 1
  store i32 %55, ptr %7, align 4
  br label %56

56:                                               ; preds = %51, %41
  br label %57

57:                                               ; preds = %56
  %58 = load i32, ptr %5, align 4
  %59 = add nsw i32 %58, 1
  store i32 %59, ptr %5, align 4
  br label %38, !llvm.loop !25

60:                                               ; preds = %38
  %61 = getelementptr inbounds %class.ModelPPM, ptr %9, i32 0, i32 17
  %62 = getelementptr inbounds [256 x i8], ptr %61, i64 0, i64 0
  call void @llvm.memset.p0.i64(ptr align 8 %62, i8 0, i64 64, i1 false)
  %63 = getelementptr inbounds %class.ModelPPM, ptr %9, i32 0, i32 17
  %64 = getelementptr inbounds [256 x i8], ptr %63, i64 0, i64 0
  %65 = getelementptr inbounds i8, ptr %64, i64 64
  call void @llvm.memset.p0.i64(ptr align 1 %65, i8 8, i64 192, i1 false)
  %66 = getelementptr inbounds %class.ModelPPM, ptr %9, i32 0, i32 2
  %67 = getelementptr inbounds %struct.RARPPM_SEE2_CONTEXT, ptr %66, i32 0, i32 1
  store i8 7, ptr %67, align 1
  ret void
}

; Function Attrs: mustprogress uwtable
define noundef zeroext i1 @_ZN12SubAllocator17StartSubAllocatorEi(ptr noundef nonnull align 8 dereferenceable(536) %0, i32 noundef %1) #0 align 2 {
  %3 = alloca i1, align 1
  %4 = alloca ptr, align 8
  %5 = alloca i32, align 4
  %6 = alloca i32, align 4
  %7 = alloca i32, align 4
  store ptr %0, ptr %4, align 8
  store i32 %1, ptr %5, align 4
  %8 = load ptr, ptr %4, align 8
  %9 = load i32, ptr %5, align 4
  %10 = shl i32 %9, 20
  store i32 %10, ptr %6, align 4
  %11 = getelementptr inbounds %class.SubAllocator, ptr %8, i32 0, i32 0
  %12 = load i64, ptr %11, align 8
  %13 = load i32, ptr %6, align 4
  %14 = zext i32 %13 to i64
  %15 = icmp eq i64 %12, %14
  br i1 %15, label %16, label %17

16:                                               ; preds = %2
  store i1 true, ptr %3, align 1
  br label %39

17:                                               ; preds = %2
  call void @_ZN12SubAllocator16StopSubAllocatorEv(ptr noundef nonnull align 8 dereferenceable(536) %8)
  %18 = load i32, ptr %6, align 4
  %19 = udiv i32 %18, 12
  %20 = mul i32 %19, 20
  %21 = add i32 %20, 40
  store i32 %21, ptr %7, align 4
  %22 = load i32, ptr %7, align 4
  %23 = zext i32 %22 to i64
  %24 = call noalias ptr @malloc(i64 noundef %23) #13
  %25 = getelementptr inbounds %class.SubAllocator, ptr %8, i32 0, i32 4
  store ptr %24, ptr %25, align 8
  %26 = icmp eq ptr %24, null
  br i1 %26, label %27, label %28

27:                                               ; preds = %17
  call void @_ZN12ErrorHandler11MemoryErrorEv(ptr noundef nonnull align 4 dereferenceable(14) @ErrHandler)
  store i1 false, ptr %3, align 1
  br label %39

28:                                               ; preds = %17
  %29 = getelementptr inbounds %class.SubAllocator, ptr %8, i32 0, i32 4
  %30 = load ptr, ptr %29, align 8
  %31 = load i32, ptr %7, align 4
  %32 = zext i32 %31 to i64
  %33 = getelementptr inbounds i8, ptr %30, i64 %32
  %34 = getelementptr inbounds i8, ptr %33, i64 -20
  %35 = getelementptr inbounds %class.SubAllocator, ptr %8, i32 0, i32 10
  store ptr %34, ptr %35, align 8
  %36 = load i32, ptr %6, align 4
  %37 = zext i32 %36 to i64
  %38 = getelementptr inbounds %class.SubAllocator, ptr %8, i32 0, i32 0
  store i64 %37, ptr %38, align 8
  store i1 true, ptr %3, align 1
  br label %39

39:                                               ; preds = %28, %27, %16
  %40 = load i1, ptr %3, align 1
  ret i1 %40
}

; Function Attrs: mustprogress nounwind uwtable
define void @_ZN12SubAllocator16StopSubAllocatorEv(ptr noundef nonnull align 8 dereferenceable(536) %0) #1 align 2 {
  %2 = alloca ptr, align 8
  store ptr %0, ptr %2, align 8
  %3 = load ptr, ptr %2, align 8
  %4 = getelementptr inbounds %class.SubAllocator, ptr %3, i32 0, i32 0
  %5 = load i64, ptr %4, align 8
  %6 = icmp ne i64 %5, 0
  br i1 %6, label %7, label %11

7:                                                ; preds = %1
  %8 = getelementptr inbounds %class.SubAllocator, ptr %3, i32 0, i32 0
  store i64 0, ptr %8, align 8
  %9 = getelementptr inbounds %class.SubAllocator, ptr %3, i32 0, i32 4
  %10 = load ptr, ptr %9, align 8
  call void @free(ptr noundef %10) #12
  br label %11

11:                                               ; preds = %7, %1
  ret void
}

; Function Attrs: mustprogress uwtable
define void @_ZN8ModelPPM7CleanUpEv(ptr noundef nonnull align 8 dereferenceable(19648) %0) #0 align 2 {
  %2 = alloca ptr, align 8
  store ptr %0, ptr %2, align 8
  %3 = load ptr, ptr %2, align 8
  %4 = getelementptr inbounds %class.ModelPPM, ptr %3, i32 0, i32 25
  call void @_ZN12SubAllocator16StopSubAllocatorEv(ptr noundef nonnull align 8 dereferenceable(536) %4)
  %5 = getelementptr inbounds %class.ModelPPM, ptr %3, i32 0, i32 25
  %6 = call noundef zeroext i1 @_ZN12SubAllocator17StartSubAllocatorEi(ptr noundef nonnull align 8 dereferenceable(536) %5, i32 noundef 1)
  call void @_ZN8ModelPPM14StartModelRareEi(ptr noundef nonnull align 8 dereferenceable(19648) %3, i32 noundef 2)
  ret void
}