; Function Attrs: mustprogress uwtable
define void @_ZN8ModelPPM7CleanUpEv(ptr noundef nonnull align 8 dereferenceable(19648) %0) local_unnamed_addr #0 align 2 {
  %2 = getelementptr inbounds i8, ptr %0, i64 19112
  %3 = load i64, ptr %2, align 8
  %.not.i = icmp eq i64 %3, 0
  br i1 %.not.i, label %_ZN12SubAllocator16StopSubAllocatorEv.exit.i, label %_ZN12SubAllocator16StopSubAllocatorEv.exit

_ZN12SubAllocator16StopSubAllocatorEv.exit:       ; preds = %1
  store i64 0, ptr %2, align 8
  %4 = getelementptr inbounds i8, ptr %0, i64 19288
  %5 = load ptr, ptr %4, align 8
  tail call void @free(ptr noundef %5) #21
  %.pr = load i64, ptr %2, align 8
  switch i64 %.pr, label %6 [
    i64 1048576, label %_ZN12SubAllocator17StartSubAllocatorEi.exit
    i64 0, label %_ZN12SubAllocator16StopSubAllocatorEv.exit.i
  ]

6:                                                ; preds = %_ZN12SubAllocator16StopSubAllocatorEv.exit
  store i64 0, ptr %2, align 8
  %7 = load ptr, ptr %4, align 8
  tail call void @free(ptr noundef %7) #21
  br label %_ZN12SubAllocator16StopSubAllocatorEv.exit.i

_ZN12SubAllocator16StopSubAllocatorEv.exit.i:     ; preds = %_ZN12SubAllocator16StopSubAllocatorEv.exit, %1, %6
  %8 = tail call noalias dereferenceable_or_null(1747660) ptr @malloc(i64 noundef 1747660) #22
  %9 = getelementptr inbounds i8, ptr %0, i64 19288
  store ptr %8, ptr %9, align 8
  %10 = icmp eq ptr %8, null
  br i1 %10, label %11, label %12

11:                                               ; preds = %_ZN12SubAllocator16StopSubAllocatorEv.exit.i
  tail call void @_ZN12ErrorHandler11MemoryErrorEv(ptr noundef nonnull align 4 dereferenceable(14) @ErrHandler)
  br label %_ZN12SubAllocator17StartSubAllocatorEi.exit

12:                                               ; preds = %_ZN12SubAllocator16StopSubAllocatorEv.exit.i
  %13 = getelementptr inbounds i8, ptr %8, i64 1747640
  %14 = getelementptr inbounds i8, ptr %0, i64 19632
  store ptr %13, ptr %14, align 8
  store i64 1048576, ptr %2, align 8
  br label %_ZN12SubAllocator17StartSubAllocatorEi.exit

_ZN12SubAllocator17StartSubAllocatorEi.exit:      ; preds = %_ZN12SubAllocator16StopSubAllocatorEv.exit, %11, %12
  %15 = getelementptr inbounds i8, ptr %0, i64 2688
  store i8 1, ptr %15, align 8
  %16 = getelementptr inbounds i8, ptr %0, i64 1652
  store i32 2, ptr %16, align 4
  tail call void @_ZN8ModelPPM16RestartModelRareEv(ptr noundef nonnull align 8 dereferenceable(19648) %0)
  %17 = getelementptr inbounds i8, ptr %0, i64 2176
  store i8 0, ptr %17, align 8
  %18 = getelementptr inbounds i8, ptr %0, i64 2177
  store i8 2, ptr %18, align 1
  %19 = getelementptr inbounds i8, ptr %0, i64 2178
  tail call void @llvm.memset.p0.i64(ptr noundef nonnull align 2 dereferenceable(9) %19, i8 4, i64 9, i1 false)
  %20 = getelementptr inbounds i8, ptr %0, i64 2187
  tail call void @llvm.memset.p0.i64(ptr noundef nonnull align 1 dereferenceable(245) %20, i8 6, i64 245, i1 false)
  %21 = getelementptr inbounds i8, ptr %0, i64 1920
  br label %22

22:                                               ; preds = %22, %_ZN12SubAllocator17StartSubAllocatorEi.exit
  %indvars.iv.i = phi i64 [ 0, %_ZN12SubAllocator17StartSubAllocatorEi.exit ], [ %indvars.iv.next.i, %22 ]
  %23 = trunc i64 %indvars.iv.i to i8
  %24 = getelementptr inbounds [256 x i8], ptr %21, i64 0, i64 %indvars.iv.i
  store i8 %23, ptr %24, align 1
  %indvars.iv.next.i = add nuw nsw i64 %indvars.iv.i, 1
  %exitcond.not.i = icmp eq i64 %indvars.iv.next.i, 3
  br i1 %exitcond.not.i, label %.lr.ph.i, label %22, !llvm.loop !24

.lr.ph.i:                                         ; preds = %22, %.lr.ph.i
  %indvars.iv26.i = phi i64 [ %indvars.iv.next27.i, %.lr.ph.i ], [ 3, %22 ]
  %.024.i = phi i32 [ %.1.i, %.lr.ph.i ], [ 1, %22 ]
  %.01323.i = phi i8 [ %.114.i, %.lr.ph.i ], [ 3, %22 ]
  %.01522.i = phi i32 [ %.116.i, %.lr.ph.i ], [ 1, %22 ]
  %25 = getelementptr inbounds [256 x i8], ptr %21, i64 0, i64 %indvars.iv26.i
  store i8 %.01323.i, ptr %25, align 1
  %26 = add nsw i32 %.01522.i, -1
  %.not.i1 = icmp eq i32 %26, 0
  %27 = add nsw i32 %.024.i, 1
  %.116.i = select i1 %.not.i1, i32 %27, i32 %26
  %28 = zext i1 %.not.i1 to i8
  %.114.i = add i8 %.01323.i, %28
  %.1.i = select i1 %.not.i1, i32 %27, i32 %.024.i
  %indvars.iv.next27.i = add nuw nsw i64 %indvars.iv26.i, 1
  %exitcond29.not.i = icmp eq i64 %indvars.iv.next27.i, 256
  br i1 %exitcond29.not.i, label %_ZN8ModelPPM14StartModelRareEi.exit, label %.lr.ph.i, !llvm.loop !25

_ZN8ModelPPM14StartModelRareEi.exit:              ; preds = %.lr.ph.i
  %29 = getelementptr inbounds i8, ptr %0, i64 2432
  tail call void @llvm.memset.p0.i64(ptr noundef nonnull align 8 dereferenceable(64) %29, i8 0, i64 64, i1 false)
  %30 = getelementptr inbounds i8, ptr %0, i64 2496
  tail call void @llvm.memset.p0.i64(ptr noundef nonnull align 8 dereferenceable(192) %30, i8 8, i64 192, i1 false)
  %31 = getelementptr inbounds i8, ptr %0, i64 1603
  store i8 7, ptr %31, align 1
  ret void
}